; Function Attrs: nounwind sspstrong uwtable
define internal noundef i32 @parse_bc_cb(i64 %0, i64 noundef %1) #0 {
  %.pr.i = load i64, ptr @parse_bc_cb.rbimpl_id, align 8, !tbaa !6
  %.not4.i = icmp eq i64 %.pr.i, 0
  br i1 %.not4.i, label %.lr.ph.i, label %rbimpl_intern_const.exit

.lr.ph.i:                                         ; preds = %2, %.lr.ph.i
  %3 = tail call i64 @rb_intern2(ptr noundef nonnull @.str.11, i64 noundef 3) #13
  store i64 %3, ptr @parse_bc_cb.rbimpl_id, align 8, !tbaa !6
  %.not.i = icmp eq i64 %3, 0
  br i1 %.not.i, label %.lr.ph.i, label %rbimpl_intern_const.exit, !llvm.loop !36

rbimpl_intern_const.exit:                         ; preds = %.lr.ph.i, %2
  %.lcssa.i = phi i64 [ %.pr.i, %2 ], [ %3, %.lr.ph.i ]
  %4 = tail call i64 @rb_id2sym(i64 noundef %.lcssa.i) #13
  %5 = tail call i64 @rb_hash_aset(i64 noundef %1, i64 noundef %4, i64 noundef 20) #13
  ret i32 1
}